target datalayout = "e-m:e-p270:32:32-p271:32:32-p272:64:64-i64:64-i128:128-f80:128-n8:16:32:64-S128"
target triple = "x86_64-pc-linux-gnu"

%"class.llvm::SmallVectorBase" = type { ptr, i32, i32 }
%"struct.(anonymous namespace)::MemoryMapParams" = type { i64, i64, i64, i64 }
%"class.std::__cxx11::basic_string" = type { %"struct.std::__cxx11::basic_string<char>::_Alloc_hider", i64, %union.anon }
%"struct.std::__cxx11::basic_string<char>::_Alloc_hider" = type { ptr }
%union.anon = type { i64, [8 x i8] }
%"class.(anonymous namespace)::MemorySanitizer" = type { i8, i32, i8, i8, %"class.llvm::Triple", ptr, ptr, ptr, ptr, ptr, ptr, ptr, ptr, ptr, ptr, ptr, i8, %"class.llvm::FunctionCallee", [4 x %"class.llvm::FunctionCallee"], [4 x %"class.llvm::FunctionCallee"], %"class.llvm::FunctionCallee", %"class.llvm::FunctionCallee", %"class.llvm::FunctionCallee", %"class.llvm::FunctionCallee", %"class.llvm::FunctionCallee", %"class.llvm::FunctionCallee", %"class.llvm::FunctionCallee", %"class.llvm::FunctionCallee", ptr, %"class.llvm::FunctionCallee", %"class.llvm::FunctionCallee", %"class.llvm::FunctionCallee", ptr, %"class.llvm::FunctionCallee", %"class.llvm::FunctionCallee", [4 x %"class.llvm::FunctionCallee"], [4 x %"class.llvm::FunctionCallee"], %"class.llvm::FunctionCallee", ptr, ptr, %"struct.(anonymous namespace)::MemoryMapParams", ptr, ptr }
%"class.llvm::Triple" = type { %"class.std::__cxx11::basic_string", i32, i32, i32, i32, i32, i32 }
%"class.llvm::FunctionCallee" = type { ptr, ptr }
%"struct.(anonymous namespace)::MemorySanitizerVisitor" = type { ptr, ptr, %"class.llvm::SmallVector.201", %"class.llvm::SmallVector.201", %"class.llvm::ValueMap", %"class.llvm::ValueMap", %"class.std::unique_ptr.222", ptr, ptr, %"class.llvm::SmallVector.230", i8, i8, i8, i8, %"class.llvm::SmallVector.235", %"class.llvm::DenseMap.240", i8, %"class.llvm::SmallSetVector", %"class.llvm::SmallVector.251", %"class.llvm::SmallVector.256", i64 }
%"class.llvm::SmallVector.201" = type { %"class.llvm::SmallVectorImpl.202", %"struct.llvm::SmallVectorStorage.205" }
%"class.llvm::SmallVectorImpl.202" = type { %"class.llvm::SmallVectorTemplateBase.203" }
%"class.llvm::SmallVectorTemplateBase.203" = type { %"class.llvm::SmallVectorTemplateCommon.204" }
%"class.llvm::SmallVectorTemplateCommon.204" = type { %"class.llvm::SmallVectorBase" }
%"struct.llvm::SmallVectorStorage.205" = type { [128 x i8] }
%"class.llvm::ValueMap" = type { %"class.llvm::DenseMap.206", %"class.std::optional.209", [8 x i8] }
%"class.llvm::DenseMap.206" = type <{ ptr, i32, i32, i32, [4 x i8] }>
%"class.std::optional.209" = type { %"struct.std::_Optional_base.210" }
%"struct.std::_Optional_base.210" = type { %"struct.std::_Optional_payload.212" }
%"struct.std::_Optional_payload.212" = type { %"struct.std::_Optional_payload.base.219", [7 x i8] }
%"struct.std::_Optional_payload.base.219" = type { %"struct.std::_Optional_payload_base.base.218" }
%"struct.std::_Optional_payload_base.base.218" = type { %"union.std::_Optional_payload_base<llvm::DenseMap<const llvm::Metadata *, llvm::TrackingMDRef>>::_Storage", i8 }
%"union.std::_Optional_payload_base<llvm::DenseMap<const llvm::Metadata *, llvm::TrackingMDRef>>::_Storage" = type { %"class.llvm::DenseMap.215" }
%"class.llvm::DenseMap.215" = type <{ ptr, i32, i32, i32, [4 x i8] }>
%"class.std::unique_ptr.222" = type { %"struct.std::__uniq_ptr_data.223" }
%"struct.std::__uniq_ptr_data.223" = type { %"class.std::__uniq_ptr_impl.224" }
%"class.std::__uniq_ptr_impl.224" = type { %"class.std::tuple.225" }
%"class.std::tuple.225" = type { %"struct.std::_Tuple_impl.226" }
%"struct.std::_Tuple_impl.226" = type { %"struct.std::_Head_base.229" }
%"struct.std::_Head_base.229" = type { ptr }
%"class.llvm::SmallVector.230" = type { %"class.llvm::SmallVectorImpl.231", %"struct.llvm::SmallVectorStorage.234" }
%"class.llvm::SmallVectorImpl.231" = type { %"class.llvm::SmallVectorTemplateBase.232" }
%"class.llvm::SmallVectorTemplateBase.232" = type { %"class.llvm::SmallVectorTemplateCommon.233" }
%"class.llvm::SmallVectorTemplateCommon.233" = type { %"class.llvm::SmallVectorBase" }
%"struct.llvm::SmallVectorStorage.234" = type { [128 x i8] }
%"class.llvm::SmallVector.235" = type { %"class.llvm::SmallVectorImpl.236", %"struct.llvm::SmallVectorStorage.239" }
%"class.llvm::SmallVectorImpl.236" = type { %"class.llvm::SmallVectorTemplateBase.237" }
%"class.llvm::SmallVectorTemplateBase.237" = type { %"class.llvm::SmallVectorTemplateCommon.238" }
%"class.llvm::SmallVectorTemplateCommon.238" = type { %"class.llvm::SmallVectorBase" }
%"struct.llvm::SmallVectorStorage.239" = type { [384 x i8] }
%"class.llvm::DenseMap.240" = type <{ ptr, i32, i32, i32, [4 x i8] }>
%"class.llvm::SmallSetVector" = type { %"class.llvm::SetVector" }
%"class.llvm::SetVector" = type { %"class.llvm::DenseSet", %"class.llvm::SmallVector.246" }
%"class.llvm::DenseSet" = type { %"class.llvm::detail::DenseSetImpl" }
%"class.llvm::detail::DenseSetImpl" = type { %"class.llvm::DenseMap.243" }
%"class.llvm::DenseMap.243" = type <{ ptr, i32, i32, i32, [4 x i8] }>
%"class.llvm::SmallVector.246" = type { %"class.llvm::SmallVectorImpl.247", %"struct.llvm::SmallVectorStorage.250" }
%"class.llvm::SmallVectorImpl.247" = type { %"class.llvm::SmallVectorTemplateBase.248" }
%"class.llvm::SmallVectorTemplateBase.248" = type { %"class.llvm::SmallVectorTemplateCommon.249" }
%"class.llvm::SmallVectorTemplateCommon.249" = type { %"class.llvm::SmallVectorBase" }
%"struct.llvm::SmallVectorStorage.250" = type { [128 x i8] }
%"class.llvm::SmallVector.251" = type { %"class.llvm::SmallVectorImpl.252", %"struct.llvm::SmallVectorStorage.255" }
%"class.llvm::SmallVectorImpl.252" = type { %"class.llvm::SmallVectorTemplateBase.253" }
%"class.llvm::SmallVectorTemplateBase.253" = type { %"class.llvm::SmallVectorTemplateCommon.254" }
%"class.llvm::SmallVectorTemplateCommon.254" = type { %"class.llvm::SmallVectorBase" }
%"struct.llvm::SmallVectorStorage.255" = type { [256 x i8] }
%"class.llvm::SmallVector.256" = type { %"class.llvm::SmallVectorImpl.257", %"struct.llvm::SmallVectorStorage.260" }
%"class.llvm::SmallVectorImpl.257" = type { %"class.llvm::SmallVectorTemplateBase.258" }
%"class.llvm::SmallVectorTemplateBase.258" = type { %"class.llvm::SmallVectorTemplateCommon.259" }
%"class.llvm::SmallVectorTemplateCommon.259" = type { %"class.llvm::SmallVectorBase" }
%"struct.llvm::SmallVectorStorage.260" = type { [128 x i8] }
%"class.llvm::Type" = type { ptr, i32, i32, ptr }
%"class.llvm::ElementCount" = type { %"class.llvm::details::FixedOrScalableQuantity.base.320", [3 x i8] }
%"class.llvm::details::FixedOrScalableQuantity.base.320" = type <{ i32, i8 }>
%"class.llvm::VectorType" = type <{ %"class.llvm::Type", ptr, i32, [4 x i8] }>
%"class.llvm::details::FixedOrScalableQuantity.319" = type <{ i32, i8, [3 x i8] }>

; Function Attrs: mustprogress nounwind uwtable
define linkonce_odr hidden noundef zeroext i1 @_ZN4llvm18ScalableVectorType7classofEPKNS_4TypeE(ptr noundef %0) #1 comdat align 2 {
  %2 = alloca ptr, align 8
  store ptr %0, ptr %2, align 8
  %3 = load ptr, ptr %2, align 8
  %4 = call noundef i32 @_ZNK4llvm4Type9getTypeIDEv(ptr noundef nonnull align 8 dereferenceable(24) %3)
  %5 = icmp eq i32 %4, 18
  ret i1 %5
}

; Function Attrs: mustprogress nounwind uwtable
define linkonce_odr hidden noundef i32 @_ZNK4llvm4Type9getTypeIDEv(ptr noundef nonnull align 8 dereferenceable(24) %0) #1 comdat align 2 {
  %2 = alloca ptr, align 8
  store ptr %0, ptr %2, align 8
  %3 = load ptr, ptr %2, align 8
  %4 = getelementptr inbounds nuw %"class.llvm::Type", ptr %3, i32 0, i32 1
  %5 = load i32, ptr %4, align 8
  %6 = and i32 %5, 255
  ret i32 %6
}

; Function Attrs: mustprogress nounwind uwtable
define linkonce_odr hidden noundef zeroext i1 @_ZN4llvm8isa_implINS_18ScalableVectorTypeENS_10VectorTypeEvE4doitERKS2_(ptr noundef nonnull align 8 dereferenceable(36) %0) #1 comdat align 2 {
  %2 = alloca ptr, align 8
  store ptr %0, ptr %2, align 8
  %3 = load ptr, ptr %2, align 8
  %4 = call noundef zeroext i1 @_ZN4llvm18ScalableVectorType7classofEPKNS_4TypeE(ptr noundef %3)
  ret i1 %4
}

; Function Attrs: mustprogress nounwind uwtable
define linkonce_odr hidden noundef zeroext i1 @_ZN4llvm10VectorType7classofEPKNS_4TypeE(ptr noundef %0) #1 comdat align 2 {
  %2 = alloca ptr, align 8
  store ptr %0, ptr %2, align 8
  %3 = load ptr, ptr %2, align 8
  %4 = call noundef i32 @_ZNK4llvm4Type9getTypeIDEv(ptr noundef nonnull align 8 dereferenceable(24) %3)
  %5 = icmp eq i32 %4, 17
  br i1 %5, label %10, label %6

6:                                                ; preds = %1
  %7 = load ptr, ptr %2, align 8
  %8 = call noundef i32 @_ZNK4llvm4Type9getTypeIDEv(ptr noundef nonnull align 8 dereferenceable(24) %7)
  %9 = icmp eq i32 %8, 18
  br label %10

10:                                               ; preds = %6, %1
  %11 = phi i1 [ true, %1 ], [ %9, %6 ]
  ret i1 %11
}

; Function Attrs: mustprogress nounwind uwtable
define linkonce_odr hidden noundef zeroext i1 @_ZN4llvm11isa_impl_clINS_18ScalableVectorTypeEPKNS_10VectorTypeEE4doitES4_(ptr noundef %0) #1 comdat align 2 {
  %2 = alloca ptr, align 8
  store ptr %0, ptr %2, align 8
  %3 = load ptr, ptr %2, align 8
  %4 = call noundef zeroext i1 @_ZN4llvm8isa_implINS_18ScalableVectorTypeENS_10VectorTypeEvE4doitERKS2_(ptr noundef nonnull align 8 dereferenceable(36) %3)
  ret i1 %4
}

; Function Attrs: mustprogress nounwind uwtable
define linkonce_odr hidden noundef zeroext i1 @_ZN4llvm8isa_implINS_10VectorTypeENS_4TypeEvE4doitERKS2_(ptr noundef nonnull align 8 dereferenceable(24) %0) #1 comdat align 2 {
  %2 = alloca ptr, align 8
  store ptr %0, ptr %2, align 8
  %3 = load ptr, ptr %2, align 8
  %4 = call noundef zeroext i1 @_ZN4llvm10VectorType7classofEPKNS_4TypeE(ptr noundef %3)
  ret i1 %4
}

; Function Attrs: mustprogress nounwind uwtable
define linkonce_odr hidden noundef zeroext i1 @_ZN4llvm13isa_impl_wrapINS_18ScalableVectorTypeEPKNS_10VectorTypeES4_E4doitERKS4_(ptr noundef nonnull align 8 dereferenceable(8) %0) #1 comdat align 2 {
  %2 = alloca ptr, align 8
  store ptr %0, ptr %2, align 8
  %3 = load ptr, ptr %2, align 8
  %4 = load ptr, ptr %3, align 8
  %5 = call noundef zeroext i1 @_ZN4llvm11isa_impl_clINS_18ScalableVectorTypeEPKNS_10VectorTypeEE4doitES4_(ptr noundef %4)
  ret i1 %5
}

; Function Attrs: mustprogress nounwind uwtable
define linkonce_odr hidden noundef zeroext i1 @_ZN4llvm11isa_impl_clINS_10VectorTypeEPKNS_4TypeEE4doitES4_(ptr noundef %0) #1 comdat align 2 {
  %2 = alloca ptr, align 8
  store ptr %0, ptr %2, align 8
  %3 = load ptr, ptr %2, align 8
  %4 = call noundef zeroext i1 @_ZN4llvm8isa_implINS_10VectorTypeENS_4TypeEvE4doitERKS2_(ptr noundef nonnull align 8 dereferenceable(24) %3)
  ret i1 %4
}

; Function Attrs: mustprogress nounwind uwtable
define linkonce_odr hidden noundef nonnull align 8 dereferenceable(8) ptr @_ZN4llvm13simplify_typeIPNS_4TypeEE18getSimplifiedValueERS2_(ptr noundef nonnull align 8 dereferenceable(8) %0) #1 comdat align 2 {
  %2 = alloca ptr, align 8
  store ptr %0, ptr %2, align 8
  %3 = load ptr, ptr %2, align 8
  ret ptr %3
}

; Function Attrs: mustprogress nounwind uwtable
define linkonce_odr hidden noundef zeroext i1 @_ZN4llvm13isa_impl_wrapINS_18ScalableVectorTypeEKPKNS_10VectorTypeES4_E4doitERS5_(ptr noundef nonnull align 8 dereferenceable(8) %0) #1 comdat align 2 {
  %2 = alloca ptr, align 8
  %3 = alloca ptr, align 8
  store ptr %0, ptr %2, align 8
  %4 = load ptr, ptr %2, align 8
  %5 = call noundef ptr @_ZN4llvm13simplify_typeIKPKNS_10VectorTypeEE18getSimplifiedValueERS4_(ptr noundef nonnull align 8 dereferenceable(8) %4)
  store ptr %5, ptr %3, align 8
  %6 = call noundef zeroext i1 @_ZN4llvm13isa_impl_wrapINS_18ScalableVectorTypeEPKNS_10VectorTypeES4_E4doitERKS4_(ptr noundef nonnull align 8 dereferenceable(8) %3)
  ret i1 %6
}

; Function Attrs: mustprogress nounwind uwtable
define linkonce_odr hidden noundef nonnull align 8 dereferenceable(8) ptr @_ZN4llvm13simplify_typeIPKNS_10VectorTypeEE18getSimplifiedValueERS3_(ptr noundef nonnull align 8 dereferenceable(8) %0) #1 comdat align 2 {
  %2 = alloca ptr, align 8
  store ptr %0, ptr %2, align 8
  %3 = load ptr, ptr %2, align 8
  ret ptr %3
}

; Function Attrs: mustprogress nounwind uwtable
define linkonce_odr hidden noundef zeroext i1 @_ZN4llvm13isa_impl_wrapINS_10VectorTypeEPKNS_4TypeES4_E4doitERKS4_(ptr noundef nonnull align 8 dereferenceable(8) %0) #1 comdat align 2 {
  %2 = alloca ptr, align 8
  store ptr %0, ptr %2, align 8
  %3 = load ptr, ptr %2, align 8
  %4 = load ptr, ptr %3, align 8
  %5 = call noundef zeroext i1 @_ZN4llvm11isa_impl_clINS_10VectorTypeEPKNS_4TypeEE4doitES4_(ptr noundef %4)
  ret i1 %5
}

; Function Attrs: mustprogress nounwind uwtable
define linkonce_odr hidden noundef ptr @_ZN4llvm13simplify_typeIKPNS_4TypeEE18getSimplifiedValueERS3_(ptr noundef nonnull align 8 dereferenceable(8) %0) #1 comdat align 2 {
  %2 = alloca ptr, align 8
  store ptr %0, ptr %2, align 8
  %3 = load ptr, ptr %2, align 8
  %4 = call noundef nonnull align 8 dereferenceable(8) ptr @_ZN4llvm13simplify_typeIPNS_4TypeEE18getSimplifiedValueERS2_(ptr noundef nonnull align 8 dereferenceable(8) %3)
  %5 = load ptr, ptr %4, align 8
  ret ptr %5
}

; Function Attrs: mustprogress nounwind uwtable
define linkonce_odr hidden void @_ZN4llvm7details23FixedOrScalableQuantityINS_12ElementCountEjEC2Ejb(ptr noundef nonnull align 4 dereferenceable(5) %0, i32 noundef %1, i1 noundef zeroext %2) unnamed_addr #1 comdat align 2 {
  %4 = alloca ptr, align 8
  %5 = alloca i32, align 4
  %6 = alloca i8, align 1
  store ptr %0, ptr %4, align 8
  store i32 %1, ptr %5, align 4
  %7 = zext i1 %2 to i8
  store i8 %7, ptr %6, align 1
  %8 = load ptr, ptr %4, align 8
  %9 = getelementptr inbounds nuw %"class.llvm::details::FixedOrScalableQuantity.319", ptr %8, i32 0, i32 0
  %10 = load i32, ptr %5, align 4
  store i32 %10, ptr %9, align 4
  %11 = getelementptr inbounds nuw %"class.llvm::details::FixedOrScalableQuantity.319", ptr %8, i32 0, i32 1
  %12 = load i8, ptr %6, align 1
  %13 = trunc i8 %12 to i1
  %14 = zext i1 %13 to i8
  store i8 %14, ptr %11, align 4
  ret void
}

; Function Attrs: mustprogress nounwind uwtable
define linkonce_odr hidden noundef zeroext i1 @_ZN4llvm14CastIsPossibleINS_18ScalableVectorTypeEPKNS_10VectorTypeEvE10isPossibleERKS4_(ptr noundef nonnull align 8 dereferenceable(8) %0) #1 comdat align 2 {
  %2 = alloca ptr, align 8
  store ptr %0, ptr %2, align 8
  %3 = load ptr, ptr %2, align 8
  %4 = call noundef zeroext i1 @_ZN4llvm13isa_impl_wrapINS_18ScalableVectorTypeEKPKNS_10VectorTypeES4_E4doitERS5_(ptr noundef nonnull align 8 dereferenceable(8) %3)
  ret i1 %4
}

; Function Attrs: mustprogress nounwind uwtable
define linkonce_odr hidden noundef ptr @_ZN4llvm13simplify_typeIKPKNS_10VectorTypeEE18getSimplifiedValueERS4_(ptr noundef nonnull align 8 dereferenceable(8) %0) #1 comdat align 2 {
  %2 = alloca ptr, align 8
  store ptr %0, ptr %2, align 8
  %3 = load ptr, ptr %2, align 8
  %4 = call noundef nonnull align 8 dereferenceable(8) ptr @_ZN4llvm13simplify_typeIPKNS_10VectorTypeEE18getSimplifiedValueERS3_(ptr noundef nonnull align 8 dereferenceable(8) %3)
  %5 = load ptr, ptr %4, align 8
  ret ptr %5
}

; Function Attrs: mustprogress nounwind uwtable
define linkonce_odr hidden noundef ptr @_ZN4llvm16cast_convert_valINS_10VectorTypeEPNS_4TypeES3_E4doitEPKS2_(ptr noundef %0) #1 comdat align 2 {
  %2 = alloca ptr, align 8
  store ptr %0, ptr %2, align 8
  %3 = load ptr, ptr %2, align 8
  ret ptr %3
}

; Function Attrs: mustprogress nounwind uwtable
define linkonce_odr hidden noundef zeroext i1 @_ZN4llvm13isa_impl_wrapINS_10VectorTypeEKPNS_4TypeEPKS2_E4doitERS4_(ptr noundef nonnull align 8 dereferenceable(8) %0) #1 comdat align 2 {
  %2 = alloca ptr, align 8
  %3 = alloca ptr, align 8
  store ptr %0, ptr %2, align 8
  %4 = load ptr, ptr %2, align 8
  %5 = call noundef ptr @_ZN4llvm13simplify_typeIKPNS_4TypeEE18getSimplifiedValueERS3_(ptr noundef nonnull align 8 dereferenceable(8) %4)
  store ptr %5, ptr %3, align 8
  %6 = call noundef zeroext i1 @_ZN4llvm13isa_impl_wrapINS_10VectorTypeEPKNS_4TypeES4_E4doitERKS4_(ptr noundef nonnull align 8 dereferenceable(8) %3)
  ret i1 %6
}

; Function Attrs: mustprogress nounwind uwtable
define linkonce_odr hidden void @_ZN4llvm12ElementCountC2Ejb(ptr noundef nonnull align 4 dereferenceable(5) %0, i32 noundef %1, i1 noundef zeroext %2) unnamed_addr #1 comdat align 2 {
  %4 = alloca ptr, align 8
  %5 = alloca i32, align 4
  %6 = alloca i8, align 1
  store ptr %0, ptr %4, align 8
  store i32 %1, ptr %5, align 4
  %7 = zext i1 %2 to i8
  store i8 %7, ptr %6, align 1
  %8 = load ptr, ptr %4, align 8
  %9 = load i32, ptr %5, align 4
  %10 = load i8, ptr %6, align 1
  %11 = trunc i8 %10 to i1
  call void @_ZN4llvm7details23FixedOrScalableQuantityINS_12ElementCountEjEC2Ejb(ptr noundef nonnull align 4 dereferenceable(5) %8, i32 noundef %9, i1 noundef zeroext %11)
  ret void
}

; Function Attrs: mustprogress nounwind uwtable
define linkonce_odr hidden noundef zeroext i1 @_ZN4llvm8CastInfoINS_18ScalableVectorTypeEKPKNS_10VectorTypeEvE10isPossibleERS5_(ptr noundef nonnull align 8 dereferenceable(8) %0) #1 comdat align 2 {
  %2 = alloca ptr, align 8
  %3 = alloca ptr, align 8
  store ptr %0, ptr %2, align 8
  %4 = load ptr, ptr %2, align 8
  %5 = call noundef ptr @_ZN4llvm13simplify_typeIKPKNS_10VectorTypeEE18getSimplifiedValueERS4_(ptr noundef nonnull align 8 dereferenceable(8) %4)
  store ptr %5, ptr %3, align 8
  %6 = call noundef zeroext i1 @_ZN4llvm14CastIsPossibleINS_18ScalableVectorTypeEPKNS_10VectorTypeEvE10isPossibleERKS4_(ptr noundef nonnull align 8 dereferenceable(8) %3)
  ret i1 %6
}

; Function Attrs: mustprogress nounwind uwtable
define linkonce_odr hidden noundef ptr @_ZN4llvm8CastInfoINS_10VectorTypeEPNS_4TypeEvE6doCastERKS3_(ptr noundef nonnull align 8 dereferenceable(8) %0) #1 comdat align 2 {
  %2 = alloca ptr, align 8
  store ptr %0, ptr %2, align 8
  %3 = load ptr, ptr %2, align 8
  %4 = load ptr, ptr %3, align 8
  %5 = call noundef ptr @_ZN4llvm16cast_convert_valINS_10VectorTypeEPNS_4TypeES3_E4doitEPKS2_(ptr noundef %4)
  ret ptr %5
}

; Function Attrs: mustprogress nounwind uwtable
define linkonce_odr hidden noundef ptr @_ZN4llvm8CastInfoINS_10VectorTypeEPNS_4TypeEvE10castFailedEv() #1 comdat align 2 {
  ret ptr null
}

; Function Attrs: mustprogress nounwind uwtable
define linkonce_odr hidden noundef zeroext i1 @_ZN4llvm14CastIsPossibleINS_10VectorTypeEPNS_4TypeEvE10isPossibleERKS3_(ptr noundef nonnull align 8 dereferenceable(8) %0) #1 comdat align 2 {
  %2 = alloca ptr, align 8
  store ptr %0, ptr %2, align 8
  %3 = load ptr, ptr %2, align 8
  %4 = call noundef zeroext i1 @_ZN4llvm13isa_impl_wrapINS_10VectorTypeEKPNS_4TypeEPKS2_E4doitERS4_(ptr noundef nonnull align 8 dereferenceable(8) %3)
  ret i1 %4
}

; Function Attrs: mustprogress nounwind uwtable
define linkonce_odr hidden i64 @_ZN4llvm12ElementCount3getEjb(i32 noundef %0, i1 noundef zeroext %1) #1 comdat align 2 {
  %3 = alloca %"class.llvm::ElementCount", align 4
  %4 = alloca i32, align 4
  %5 = alloca i8, align 1
  store i32 %0, ptr %4, align 4
  %6 = zext i1 %1 to i8
  store i8 %6, ptr %5, align 1
  %7 = load i32, ptr %4, align 4
  %8 = load i8, ptr %5, align 1
  %9 = trunc i8 %8 to i1
  call void @_ZN4llvm12ElementCountC2Ejb(ptr noundef nonnull align 4 dereferenceable(5) %3, i32 noundef %7, i1 noundef zeroext %9)
  %10 = load i64, ptr %3, align 4
  ret i64 %10
}

; Function Attrs: mustprogress nounwind uwtable
define linkonce_odr hidden noundef zeroext i1 @_ZN4llvm3isaINS_18ScalableVectorTypeEPKNS_10VectorTypeEEEbRKT0_(ptr noundef nonnull align 8 dereferenceable(8) %0) #1 comdat {
  %2 = alloca ptr, align 8
  store ptr %0, ptr %2, align 8
  %3 = load ptr, ptr %2, align 8
  %4 = call noundef zeroext i1 @_ZN4llvm8CastInfoINS_18ScalableVectorTypeEKPKNS_10VectorTypeEvE10isPossibleERS5_(ptr noundef nonnull align 8 dereferenceable(8) %3)
  ret i1 %4
}

; Function Attrs: mustprogress nounwind uwtable
define linkonce_odr hidden noundef ptr @_ZN4llvm8CastInfoINS_10VectorTypeEPNS_4TypeEvE16doCastIfPossibleERKS3_(ptr noundef nonnull align 8 dereferenceable(8) %0) #1 comdat align 2 {
  %2 = alloca ptr, align 8
  %3 = alloca ptr, align 8
  store ptr %0, ptr %3, align 8
  %4 = load ptr, ptr %3, align 8
  %5 = call noundef zeroext i1 @_ZN4llvm14CastIsPossibleINS_10VectorTypeEPNS_4TypeEvE10isPossibleERKS3_(ptr noundef nonnull align 8 dereferenceable(8) %4)
  br i1 %5, label %8, label %6

6:                                                ; preds = %1
  %7 = call noundef ptr @_ZN4llvm8CastInfoINS_10VectorTypeEPNS_4TypeEvE10castFailedEv()
  store ptr %7, ptr %2, align 8
  br label %11

8:                                                ; preds = %1
  %9 = load ptr, ptr %3, align 8
  %10 = call noundef ptr @_ZN4llvm8CastInfoINS_10VectorTypeEPNS_4TypeEvE6doCastERKS3_(ptr noundef nonnull align 8 dereferenceable(8) %9)
  store ptr %10, ptr %2, align 8
  br label %11

11:                                               ; preds = %8, %6
  %12 = load ptr, ptr %2, align 8
  ret ptr %12
}

; Function Attrs: mustprogress nounwind uwtable
define linkonce_odr hidden i64 @_ZNK4llvm10VectorType15getElementCountEv(ptr noundef nonnull align 8 dereferenceable(36) %0) #1 comdat align 2 {
  %2 = alloca %"class.llvm::ElementCount", align 4
  %3 = alloca ptr, align 8
  %4 = alloca ptr, align 8
  store ptr %0, ptr %3, align 8
  %5 = load ptr, ptr %3, align 8
  %6 = getelementptr inbounds nuw %"class.llvm::VectorType", ptr %5, i32 0, i32 2
  %7 = load i32, ptr %6, align 8
  store ptr %5, ptr %4, align 8
  %8 = call noundef zeroext i1 @_ZN4llvm3isaINS_18ScalableVectorTypeEPKNS_10VectorTypeEEEbRKT0_(ptr noundef nonnull align 8 dereferenceable(8) %4)
  %9 = call i64 @_ZN4llvm12ElementCount3getEjb(i32 noundef %7, i1 noundef zeroext %8)
  %10 = trunc i64 %9 to i40
  store i40 %10, ptr %2, align 4
  %11 = load i64, ptr %2, align 4
  ret i64 %11
}

; Function Attrs: mustprogress nounwind uwtable
define linkonce_odr hidden noundef ptr @_ZNK4llvm10VectorType14getElementTypeEv(ptr noundef nonnull align 8 dereferenceable(36) %0) #1 comdat align 2 {
  %2 = alloca ptr, align 8
  store ptr %0, ptr %2, align 8
  %3 = load ptr, ptr %2, align 8
  %4 = getelementptr inbounds nuw %"class.llvm::VectorType", ptr %3, i32 0, i32 1
  %5 = load ptr, ptr %4, align 8
  ret ptr %5
}

; Function Attrs: mustprogress nounwind uwtable
define linkonce_odr hidden noundef ptr @_ZN4llvm8dyn_castINS_10VectorTypeENS_4TypeEEEDcPT0_(ptr noundef %0) #1 comdat {
  %2 = alloca ptr, align 8
  store ptr %0, ptr %2, align 8
  %3 = call noundef ptr @_ZN4llvm8CastInfoINS_10VectorTypeEPNS_4TypeEvE16doCastIfPossibleERKS3_(ptr noundef nonnull align 8 dereferenceable(8) %2)
  ret ptr %3
}

; Function Attrs: mustprogress nounwind uwtable
define internal noundef ptr @_ZNK12_GLOBAL__N_122MemorySanitizerVisitor21getPtrToShadowPtrTypeEPN4llvm4TypeES3_(ptr noundef nonnull align 8 dereferenceable(1632) %0, ptr noundef %1, ptr noundef %2) #1 align 2 {
  %4 = alloca ptr, align 8
  %5 = alloca ptr, align 8
  %6 = alloca ptr, align 8
  %7 = alloca ptr, align 8
  %8 = alloca ptr, align 8
  %9 = alloca %"class.llvm::ElementCount", align 4
  store ptr %0, ptr %5, align 8
  store ptr %1, ptr %6, align 8
  store ptr %2, ptr %7, align 8
  %10 = load ptr, ptr %5, align 8
  %11 = load ptr, ptr %6, align 8
  %12 = call noundef ptr @_ZN4llvm8dyn_castINS_10VectorTypeENS_4TypeEEEDcPT0_(ptr noundef %11)
  store ptr %12, ptr %8, align 8
  %13 = load ptr, ptr %8, align 8
  %14 = icmp ne ptr %13, null
  br i1 %14, label %15, label %25

15:                                               ; preds = %3
  %16 = load ptr, ptr %8, align 8
  %17 = call noundef ptr @_ZNK4llvm10VectorType14getElementTypeEv(ptr noundef nonnull align 8 dereferenceable(36) %16)
  %18 = load ptr, ptr %7, align 8
  %19 = call noundef ptr @_ZNK12_GLOBAL__N_122MemorySanitizerVisitor21getPtrToShadowPtrTypeEPN4llvm4TypeES3_(ptr noundef nonnull align 8 dereferenceable(1632) %10, ptr noundef %17, ptr noundef %18)
  %20 = load ptr, ptr %8, align 8
  %21 = call i64 @_ZNK4llvm10VectorType15getElementCountEv(ptr noundef nonnull align 8 dereferenceable(36) %20)
  %22 = trunc i64 %21 to i40
  store i40 %22, ptr %9, align 4
  %23 = load i64, ptr %9, align 4
  %24 = call noundef ptr @_ZN4llvm10VectorType3getEPNS_4TypeENS_12ElementCountE(ptr noundef %19, i64 %23)
  store ptr %24, ptr %4, align 8
  br label %31

25:                                               ; preds = %3
  %26 = getelementptr inbounds nuw %"struct.(anonymous namespace)::MemorySanitizerVisitor", ptr %10, i32 0, i32 1
  %27 = load ptr, ptr %26, align 8
  %28 = getelementptr inbounds nuw %"class.(anonymous namespace)::MemorySanitizer", ptr %27, i32 0, i32 5
  %29 = load ptr, ptr %28, align 8
  %30 = call noundef ptr @_ZN4llvm11PointerType3getERNS_11LLVMContextEj(ptr noundef nonnull align 8 dereferenceable(8) %29, i32 noundef 0)
  store ptr %30, ptr %4, align 8
  br label %31

31:                                               ; preds = %25, %15
  %32 = load ptr, ptr %4, align 8
  ret ptr %32
}