; Function Attrs: mustprogress nounwind uwtable
define internal fastcc noundef ptr @_ZNK12_GLOBAL__N_122MemorySanitizerVisitor21getPtrToShadowPtrTypeEPN4llvm4TypeES3_(ptr nocapture noundef nonnull readonly align 8 dereferenceable(1632) %0, ptr noundef readonly %1) unnamed_addr #0 align 2 {
  %3 = getelementptr inbounds nuw i8, ptr %1, i64 8
  %4 = load i32, ptr %3, align 8
  %5 = and i32 %4, 255
  %6 = add nsw i32 %5, -19
  %spec.select.i.i.i.i.i.i.i.i = icmp ult i32 %6, -2
  %.not1 = icmp eq ptr %1, null
  %.not = or i1 %.not1, %spec.select.i.i.i.i.i.i.i.i
  br i1 %.not, label %common.ret, label %7

common.ret2:                                      ; preds = %7, %common.ret
  %common.ret2.op = phi ptr [ %21, %common.ret ], [ %16, %7 ]
  ret ptr %common.ret2.op

7:                                                ; preds = %2
  %8 = getelementptr inbounds nuw i8, ptr %1, i64 24
  %9 = load ptr, ptr %8, align 8
  %10 = tail call fastcc noundef ptr @_ZNK12_GLOBAL__N_122MemorySanitizerVisitor21getPtrToShadowPtrTypeEPN4llvm4TypeES3_(ptr noundef nonnull align 8 dereferenceable(1632) %0, ptr noundef %9)
  %11 = getelementptr inbounds nuw i8, ptr %1, i64 32
  %12 = load i32, ptr %11, align 8
  %13 = load i32, ptr %3, align 8
  %14 = and i32 %13, 255
  %15 = icmp eq i32 %14, 18
  %.sroa.2.0.insert.shift.i.i = select i1 %15, i64 4294967296, i64 0
  %.sroa.0.0.insert.ext.i.i = zext i32 %12 to i64
  %.sroa.0.0.insert.insert.i.i = or disjoint i64 %.sroa.2.0.insert.shift.i.i, %.sroa.0.0.insert.ext.i.i
  %16 = tail call noundef ptr @_ZN4llvm10VectorType3getEPNS_4TypeENS_12ElementCountE(ptr noundef %10, i64 %.sroa.0.0.insert.insert.i.i) #23
  br label %common.ret2

common.ret:                                       ; preds = %2
  %17 = getelementptr inbounds nuw i8, ptr %0, i64 8
  %18 = load ptr, ptr %17, align 8
  %19 = getelementptr inbounds nuw i8, ptr %18, i64 72
  %20 = load ptr, ptr %19, align 8
  %21 = tail call noundef ptr @_ZN4llvm11PointerType3getERNS_11LLVMContextEj(ptr noundef nonnull align 8 dereferenceable(8) %20, i32 noundef 0) #23
  br label %common.ret2
}